target datalayout = "e-m:e-p270:32:32-p271:32:32-p272:64:64-i64:64-i128:128-f80:128-n8:16:32:64-S128"
target triple = "x86_64-pc-linux-gnu"

%"class.xgboost::common::Span.1" = type { i64, ptr }

; Function Attrs: mustprogress nounwind uwtable
define linkonce_odr noundef ptr @_ZNK7xgboost6common4SpanINS_6detail20GradientPairInternalIdEELm18446744073709551615EE4dataEv(ptr noundef nonnull align 8 dereferenceable(16) %0) #6 comdat align 2 {
  %2 = alloca ptr, align 8
  store ptr %0, ptr %2, align 8, !tbaa !62
  %3 = load ptr, ptr %2, align 8
  %4 = getelementptr inbounds nuw %"class.xgboost::common::Span.1", ptr %3, i32 0, i32 1
  %5 = load ptr, ptr %4, align 8, !tbaa !192
  ret ptr %5
}

; Function Attrs: mustprogress nounwind uwtable
define void @_ZN7xgboost6common15SubtractionHistENS0_4SpanINS_6detail20GradientPairInternalIdEELm18446744073709551615EEES5_S5_mm(i64 %0, ptr %1, i64 %2, ptr %3, i64 %4, ptr %5, i64 noundef %6, i64 noundef %7) #6 {
  %9 = alloca %"class.xgboost::common::Span.1", align 8
  %10 = alloca %"class.xgboost::common::Span.1", align 8
  %11 = alloca %"class.xgboost::common::Span.1", align 8
  %12 = alloca i64, align 8
  %13 = alloca i64, align 8
  %14 = alloca ptr, align 8
  %15 = alloca ptr, align 8
  %16 = alloca ptr, align 8
  %17 = alloca i64, align 8
  %18 = getelementptr inbounds nuw { i64, ptr }, ptr %9, i32 0, i32 0
  store i64 %0, ptr %18, align 8
  %19 = getelementptr inbounds nuw { i64, ptr }, ptr %9, i32 0, i32 1
  store ptr %1, ptr %19, align 8
  %20 = getelementptr inbounds nuw { i64, ptr }, ptr %10, i32 0, i32 0
  store i64 %2, ptr %20, align 8
  %21 = getelementptr inbounds nuw { i64, ptr }, ptr %10, i32 0, i32 1
  store ptr %3, ptr %21, align 8
  %22 = getelementptr inbounds nuw { i64, ptr }, ptr %11, i32 0, i32 0
  store i64 %4, ptr %22, align 8
  %23 = getelementptr inbounds nuw { i64, ptr }, ptr %11, i32 0, i32 1
  store ptr %5, ptr %23, align 8
  store i64 %6, ptr %12, align 8, !tbaa !99
  store i64 %7, ptr %13, align 8, !tbaa !99
  call void @llvm.lifetime.start.p0(i64 8, ptr %14) #3
  %24 = call noundef ptr @_ZNK7xgboost6common4SpanINS_6detail20GradientPairInternalIdEELm18446744073709551615EE4dataEv(ptr noundef nonnull align 8 dereferenceable(16) %9) #3
  store ptr %24, ptr %14, align 8, !tbaa !189
  call void @llvm.lifetime.start.p0(i64 8, ptr %15) #3
  %25 = call noundef ptr @_ZNK7xgboost6common4SpanINS_6detail20GradientPairInternalIdEELm18446744073709551615EE4dataEv(ptr noundef nonnull align 8 dereferenceable(16) %10) #3
  store ptr %25, ptr %15, align 8, !tbaa !189
  call void @llvm.lifetime.start.p0(i64 8, ptr %16) #3
  %26 = call noundef ptr @_ZNK7xgboost6common4SpanINS_6detail20GradientPairInternalIdEELm18446744073709551615EE4dataEv(ptr noundef nonnull align 8 dereferenceable(16) %11) #3
  store ptr %26, ptr %16, align 8, !tbaa !189
  call void @llvm.lifetime.start.p0(i64 8, ptr %17) #3
  %27 = load i64, ptr %12, align 8, !tbaa !99
  %28 = mul i64 2, %27
  store i64 %28, ptr %17, align 8, !tbaa !99
  br label %29

29:                                               ; preds = %48, %8
  %30 = load i64, ptr %17, align 8, !tbaa !99
  %31 = load i64, ptr %13, align 8, !tbaa !99
  %32 = mul i64 2, %31
  %33 = icmp ult i64 %30, %32
  br i1 %33, label %35, label %34

34:                                               ; preds = %29
  call void @llvm.lifetime.end.p0(i64 8, ptr %17) #3
  br label %51

35:                                               ; preds = %29
  %36 = load ptr, ptr %15, align 8, !tbaa !189
  %37 = load i64, ptr %17, align 8, !tbaa !99
  %38 = getelementptr inbounds nuw double, ptr %36, i64 %37
  %39 = load double, ptr %38, align 8, !tbaa !10
  %40 = load ptr, ptr %16, align 8, !tbaa !189
  %41 = load i64, ptr %17, align 8, !tbaa !99
  %42 = getelementptr inbounds nuw double, ptr %40, i64 %41
  %43 = load double, ptr %42, align 8, !tbaa !10
  %44 = fsub double %39, %43
  %45 = load ptr, ptr %14, align 8, !tbaa !189
  %46 = load i64, ptr %17, align 8, !tbaa !99
  %47 = getelementptr inbounds nuw double, ptr %45, i64 %46
  store double %44, ptr %47, align 8, !tbaa !10
  br label %48

48:                                               ; preds = %35
  %49 = load i64, ptr %17, align 8, !tbaa !99
  %50 = add i64 %49, 1
  store i64 %50, ptr %17, align 8, !tbaa !99
  br label %29, !llvm.loop !200

51:                                               ; preds = %34
  call void @llvm.lifetime.end.p0(i64 8, ptr %16) #3
  call void @llvm.lifetime.end.p0(i64 8, ptr %15) #3
  call void @llvm.lifetime.end.p0(i64 8, ptr %14) #3
  ret void
}