; Function Attrs: mustprogress nofree norecurse nosync nounwind memory(argmem: readwrite) uwtable
define void @_ZN7xgboost6common15SubtractionHistENS0_4SpanINS_6detail20GradientPairInternalIdEELm18446744073709551615EEES5_S5_mm(i64 %0, ptr writeonly captures(none) %1, i64 %2, ptr readonly captures(none) %3, i64 %4, ptr readonly captures(none) %5, i64 noundef %6, i64 noundef %7) local_unnamed_addr #11 {
  %9 = shl i64 %6, 1
  %10 = shl i64 %7, 1
  %11 = icmp ult i64 %9, %10
  br i1 %11, label %.lr.ph, label %._crit_edge

._crit_edge:                                      ; preds = %.lr.ph, %8
  ret void

.lr.ph:                                           ; preds = %8, %.lr.ph
  %.013 = phi i64 [ %18, %.lr.ph ], [ %9, %8 ]
  %12 = getelementptr inbounds nuw double, ptr %3, i64 %.013
  %13 = load double, ptr %12, align 8, !tbaa !270
  %14 = getelementptr inbounds nuw double, ptr %5, i64 %.013
  %15 = load double, ptr %14, align 8, !tbaa !270
  %16 = fsub double %13, %15
  %17 = getelementptr inbounds nuw double, ptr %1, i64 %.013
  store double %16, ptr %17, align 8, !tbaa !270
  %18 = add nuw i64 %.013, 1
  %exitcond.not = icmp eq i64 %18, %10
  br i1 %exitcond.not, label %._crit_edge, label %.lr.ph, !llvm.loop !273
}